(iuser_operations
Animal
p0
(dp1
S'name'
p2
VMurmur
p3
sS'power'
p4
F0.3
sS'food'
p5
F90.8
sS'money'
p6
F63.0
sS'water'
p7
F97.9
sS'action'
p8
S'Sleeping'
p9
sS'last_action'
p10
S'water'
p11
sS'fun'
p12
F0.0
sS'last_action_time'
p13
F1496614017.93731
sS'id'
p14
I138082987
sb.