(iuser_operations
Animal
p0
(dp1
S'name'
p2
VRaindrops
p3
sS'power'
p4
F92.6
sS'food'
p5
F82.1
sS'money'
p6
F65.6
sS'water'
p7
F75.9
sS'action'
p8
S'At work'
p9
sS'last_action'
p10
S'love'
p11
sS'fun'
p12
F0.0
sS'last_action_time'
p13
F1496654107.202311
sS'id'
p14
I179102394
sb.