(iuser_operations
Animal
p0
(dp1
S'name'
p2
VMurMur
p3
sS'power'
p4
F86.4
sS'food'
p5
F92.7
sS'money'
p6
F174.0
sS'water'
p7
F90.2
sS'action'
p8
S'Game'
p9
sS'last_action'
p10
S'love'
p11
sS'fun'
p12
F0.0
sS'last_action_time'
p13
F1496654110.170425
sS'id'
p14
I62783604
sb.