(iuser_operations
Animal
p0
(dp1
S'name'
p2
VMurMur
p3
sS'power'
p4
F82.6
sS'food'
p5
F100.0
sS'money'
p6
F56.8
sS'water'
p7
F100.0
sS'action'
p8
S'Sleeping'
p9
sS'last_action'
p10
S'water'
p11
sS'fun'
p12
F0.0
sS'last_action_time'
p13
F1496613959.218664
sS'id'
p14
I62783604
sb.